; ModuleID = 'source-C-CXX/42/862.cpp'
source_filename = "source-C-CXX/42/862.cpp"
target datalayout = "e-m:e-p270:32:32-p271:32:32-p272:64:64-i64:64-f80:128-n8:16:32:64-S128"
target triple = "x86_64-pc-linux-gnu"

%"class.std::ios_base::Init" = type { i8 }
%"class.std::basic_istream" = type { i32 (...)**, i64, %"class.std::basic_ios" }
%"class.std::basic_ios" = type { %"class.std::ios_base", %"class.std::basic_ostream"*, i8, i8, %"class.std::basic_streambuf"*, %"class.std::ctype"*, %"class.std::num_put"*, %"class.std::num_get"* }
%"class.std::ios_base" = type { i32 (...)**, i64, i64, i32, i32, i32, %"struct.std::ios_base::_Callback_list"*, %"struct.std::ios_base::_Words", [8 x %"struct.std::ios_base::_Words"], i32, %"struct.std::ios_base::_Words"*, %"class.std::locale" }
%"struct.std::ios_base::_Callback_list" = type { %"struct.std::ios_base::_Callback_list"*, void (i32, %"class.std::ios_base"*, i32)*, i32, i32 }
%"struct.std::ios_base::_Words" = type { i8*, i64 }
%"class.std::locale" = type { %"class.std::locale::_Impl"* }
%"class.std::locale::_Impl" = type { i32, %"class.std::locale::facet"**, i64, %"class.std::locale::facet"**, i8** }
%"class.std::locale::facet" = type <{ i32 (...)**, i32, [4 x i8] }>
%"class.std::basic_ostream" = type { i32 (...)**, %"class.std::basic_ios" }
%"class.std::basic_streambuf" = type { i32 (...)**, i8*, i8*, i8*, i8*, i8*, i8*, %"class.std::locale" }
%"class.std::ctype" = type <{ %"class.std::locale::facet.base", [4 x i8], %struct.__locale_struct*, i8, [7 x i8], i32*, i32*, i16*, i8, [256 x i8], [256 x i8], i8, [6 x i8] }>
%"class.std::locale::facet.base" = type <{ i32 (...)**, i32 }>
%struct.__locale_struct = type { [13 x %struct.__locale_data*], i16*, i32*, i32*, [13 x i8*] }
%struct.__locale_data = type opaque
%"class.std::num_put" = type { %"class.std::locale::facet.base", [4 x i8] }
%"class.std::num_get" = type { %"class.std::locale::facet.base", [4 x i8] }

@_ZStL8__ioinit = internal global %"class.std::ios_base::Init" zeroinitializer, align 1
@__dso_handle = external hidden global i8
@_ZSt3cin = external global %"class.std::basic_istream", align 8
@_ZSt4cout = external global %"class.std::basic_ostream", align 8
@.str = private unnamed_addr constant [2 x i8] c" \00", align 1
@llvm.global_ctors = appending global [1 x { i32, void ()*, i8* }] [{ i32, void ()*, i8* } { i32 65535, void ()* @_GLOBAL__sub_I_862.cpp, i8* null }]

declare void @_ZNSt8ios_base4InitC1Ev(%"class.std::ios_base::Init"* nonnull align 1 dereferenceable(1)) unnamed_addr #0

; Function Attrs: nounwind
declare void @_ZNSt8ios_base4InitD1Ev(%"class.std::ios_base::Init"* nonnull align 1 dereferenceable(1)) unnamed_addr #1

; Function Attrs: nofree nounwind
declare i32 @__cxa_atexit(void (i8*)*, i8*, i8*) local_unnamed_addr #2

; Function Attrs: mustprogress norecurse sspstrong uwtable
define dso_local i32 @main() local_unnamed_addr #3 {
  %1 = alloca [10000 x i32], align 16
  %2 = alloca i32, align 4
  %3 = bitcast [10000 x i32]* %1 to i8*
  call void @llvm.lifetime.start.p0i8(i64 40000, i8* nonnull %3) #8
  call void @llvm.memset.p0i8.i64(i8* noundef nonnull align 16 dereferenceable(40000) %3, i8 0, i64 40000, i1 false)
  %4 = getelementptr inbounds [10000 x i32], [10000 x i32]* %1, i64 0, i64 0
  store i32 2, i32* %4, align 16
  %5 = bitcast i32* %2 to i8*
  call void @llvm.lifetime.start.p0i8(i64 4, i8* nonnull %5) #8
  %6 = call nonnull align 8 dereferenceable(16) %"class.std::basic_istream"* @_ZNSirsERi(%"class.std::basic_istream"* nonnull align 8 dereferenceable(16) @_ZSt3cin, i32* nonnull align 4 dereferenceable(4) %2)
  br label %12

7:                                                ; preds = %39
  %8 = getelementptr inbounds [10000 x i32], [10000 x i32]* %1, i64 0, i64 1
  %9 = load i32, i32* %8, align 4, !tbaa !5
  %10 = load i32, i32* %2, align 4, !tbaa !5
  %11 = icmp slt i32 %9, %10
  br i1 %11, label %46, label %105

12:                                               ; preds = %43, %0
  %13 = phi i32 [ 0, %0 ], [ %45, %43 ]
  %14 = phi i32 [ 2, %0 ], [ %40, %43 ]
  %15 = phi i64 [ 1, %0 ], [ %41, %43 ]
  %16 = add nsw i64 %15, -1
  %17 = getelementptr inbounds [10000 x i32], [10000 x i32]* %1, i64 0, i64 %15
  %18 = icmp eq i32 %13, 0
  br i1 %18, label %19, label %39

19:                                               ; preds = %12, %36
  %20 = phi i32 [ %21, %36 ], [ %14, %12 ]
  %21 = add nsw i32 %20, 1
  br label %22

22:                                               ; preds = %19, %32
  %23 = phi i32 [ 0, %19 ], [ %33, %32 ]
  %24 = phi i64 [ 0, %19 ], [ %34, %32 ]
  %25 = getelementptr inbounds [10000 x i32], [10000 x i32]* %1, i64 0, i64 %24
  %26 = load i32, i32* %25, align 4, !tbaa !5
  %27 = srem i32 %21, %26
  %28 = icmp eq i32 %27, 0
  br i1 %28, label %36, label %29

29:                                               ; preds = %22
  %30 = icmp eq i64 %24, %16
  br i1 %30, label %31, label %32

31:                                               ; preds = %29
  store i32 %21, i32* %17, align 4, !tbaa !5
  br label %32

32:                                               ; preds = %31, %29
  %33 = phi i32 [ %21, %31 ], [ %23, %29 ]
  %34 = add nuw nsw i64 %24, 1
  %35 = icmp eq i64 %34, %15
  br i1 %35, label %36, label %22, !llvm.loop !9

36:                                               ; preds = %32, %22
  %37 = phi i32 [ %33, %32 ], [ %23, %22 ]
  %38 = icmp eq i32 %37, 0
  br i1 %38, label %19, label %39, !llvm.loop !11

39:                                               ; preds = %36, %12
  %40 = phi i32 [ %13, %12 ], [ %37, %36 ]
  %41 = add nuw nsw i64 %15, 1
  %42 = icmp eq i64 %41, 10000
  br i1 %42, label %7, label %43, !llvm.loop !12

43:                                               ; preds = %39
  %44 = getelementptr inbounds [10000 x i32], [10000 x i32]* %1, i64 0, i64 %41
  %45 = load i32, i32* %44, align 4, !tbaa !5
  br label %12

46:                                               ; preds = %7, %99
  %47 = phi i32 [ %100, %99 ], [ %10, %7 ]
  %48 = phi i64 [ %101, %99 ], [ 1, %7 ]
  %49 = phi i32 [ %103, %99 ], [ %9, %7 ]
  %50 = icmp slt i32 %49, %47
  br i1 %50, label %51, label %99

51:                                               ; preds = %46, %92
  %52 = phi i32 [ %93, %92 ], [ %47, %46 ]
  %53 = phi i32 [ %94, %92 ], [ %47, %46 ]
  %54 = phi i64 [ %95, %92 ], [ %48, %46 ]
  %55 = phi i32 [ %97, %92 ], [ %49, %46 ]
  %56 = add nsw i32 %55, %49
  %57 = icmp eq i32 %56, %53
  br i1 %57, label %58, label %92

58:                                               ; preds = %51
  %59 = call nonnull align 8 dereferenceable(8) %"class.std::basic_ostream"* @_ZNSolsEi(%"class.std::basic_ostream"* nonnull align 8 dereferenceable(8) @_ZSt4cout, i32 %49)
  %60 = call nonnull align 8 dereferenceable(8) %"class.std::basic_ostream"* @_ZSt16__ostream_insertIcSt11char_traitsIcEERSt13basic_ostreamIT_T0_ES6_PKS3_l(%"class.std::basic_ostream"* nonnull align 8 dereferenceable(8) %59, i8* nonnull getelementptr inbounds ([2 x i8], [2 x i8]* @.str, i64 0, i64 0), i64 1)
  %61 = call nonnull align 8 dereferenceable(8) %"class.std::basic_ostream"* @_ZNSolsEi(%"class.std::basic_ostream"* nonnull align 8 dereferenceable(8) %59, i32 %55)
  %62 = bitcast %"class.std::basic_ostream"* %61 to i8**
  %63 = load i8*, i8** %62, align 8, !tbaa !13
  %64 = getelementptr i8, i8* %63, i64 -24
  %65 = bitcast i8* %64 to i64*
  %66 = load i64, i64* %65, align 8
  %67 = bitcast %"class.std::basic_ostream"* %61 to i8*
  %68 = add nsw i64 %66, 240
  %69 = getelementptr inbounds i8, i8* %67, i64 %68
  %70 = bitcast i8* %69 to %"class.std::ctype"**
  %71 = load %"class.std::ctype"*, %"class.std::ctype"** %70, align 8, !tbaa !15
  %72 = icmp eq %"class.std::ctype"* %71, null
  br i1 %72, label %73, label %74

73:                                               ; preds = %58
  call void @_ZSt16__throw_bad_castv() #9
  unreachable

74:                                               ; preds = %58
  %75 = getelementptr inbounds %"class.std::ctype", %"class.std::ctype"* %71, i64 0, i32 8
  %76 = load i8, i8* %75, align 8, !tbaa !19
  %77 = icmp eq i8 %76, 0
  br i1 %77, label %81, label %78

78:                                               ; preds = %74
  %79 = getelementptr inbounds %"class.std::ctype", %"class.std::ctype"* %71, i64 0, i32 9, i64 10
  %80 = load i8, i8* %79, align 1, !tbaa !21
  br label %87

81:                                               ; preds = %74
  call void @_ZNKSt5ctypeIcE13_M_widen_initEv(%"class.std::ctype"* nonnull align 8 dereferenceable(570) %71)
  %82 = bitcast %"class.std::ctype"* %71 to i8 (%"class.std::ctype"*, i8)***
  %83 = load i8 (%"class.std::ctype"*, i8)**, i8 (%"class.std::ctype"*, i8)*** %82, align 8, !tbaa !13
  %84 = getelementptr inbounds i8 (%"class.std::ctype"*, i8)*, i8 (%"class.std::ctype"*, i8)** %83, i64 6
  %85 = load i8 (%"class.std::ctype"*, i8)*, i8 (%"class.std::ctype"*, i8)** %84, align 8
  %86 = call signext i8 %85(%"class.std::ctype"* nonnull align 8 dereferenceable(570) %71, i8 signext 10)
  br label %87

87:                                               ; preds = %78, %81
  %88 = phi i8 [ %80, %78 ], [ %86, %81 ]
  %89 = call nonnull align 8 dereferenceable(8) %"class.std::basic_ostream"* @_ZNSo3putEc(%"class.std::basic_ostream"* nonnull align 8 dereferenceable(8) %61, i8 signext %88)
  %90 = call nonnull align 8 dereferenceable(8) %"class.std::basic_ostream"* @_ZNSo5flushEv(%"class.std::basic_ostream"* nonnull align 8 dereferenceable(8) %89)
  %91 = load i32, i32* %2, align 4, !tbaa !5
  br label %92

92:                                               ; preds = %51, %87
  %93 = phi i32 [ %52, %51 ], [ %91, %87 ]
  %94 = phi i32 [ %53, %51 ], [ %91, %87 ]
  %95 = add nuw i64 %54, 1
  %96 = getelementptr inbounds [10000 x i32], [10000 x i32]* %1, i64 0, i64 %95
  %97 = load i32, i32* %96, align 4, !tbaa !5
  %98 = icmp slt i32 %97, %94
  br i1 %98, label %51, label %99, !llvm.loop !22

99:                                               ; preds = %92, %46
  %100 = phi i32 [ %47, %46 ], [ %93, %92 ]
  %101 = add nuw i64 %48, 1
  %102 = getelementptr inbounds [10000 x i32], [10000 x i32]* %1, i64 0, i64 %101
  %103 = load i32, i32* %102, align 4, !tbaa !5
  %104 = icmp slt i32 %103, %100
  br i1 %104, label %46, label %105, !llvm.loop !23

105:                                              ; preds = %99, %7
  call void @llvm.lifetime.end.p0i8(i64 4, i8* nonnull %5) #8
  call void @llvm.lifetime.end.p0i8(i64 40000, i8* nonnull %3) #8
  ret i32 0
}

; Function Attrs: argmemonly mustprogress nofree nosync nounwind willreturn
declare void @llvm.lifetime.start.p0i8(i64 immarg, i8* nocapture) #4

; Function Attrs: argmemonly mustprogress nofree nounwind willreturn writeonly
declare void @llvm.memset.p0i8.i64(i8* nocapture writeonly, i8, i64, i1 immarg) #5

declare nonnull align 8 dereferenceable(16) %"class.std::basic_istream"* @_ZNSirsERi(%"class.std::basic_istream"* nonnull align 8 dereferenceable(16), i32* nonnull align 4 dereferenceable(4)) local_unnamed_addr #0

declare nonnull align 8 dereferenceable(8) %"class.std::basic_ostream"* @_ZNSolsEi(%"class.std::basic_ostream"* nonnull align 8 dereferenceable(8), i32) local_unnamed_addr #0

; Function Attrs: argmemonly mustprogress nofree nosync nounwind willreturn
declare void @llvm.lifetime.end.p0i8(i64 immarg, i8* nocapture) #4

declare nonnull align 8 dereferenceable(8) %"class.std::basic_ostream"* @_ZSt16__ostream_insertIcSt11char_traitsIcEERSt13basic_ostreamIT_T0_ES6_PKS3_l(%"class.std::basic_ostream"* nonnull align 8 dereferenceable(8), i8*, i64) local_unnamed_addr #0

declare nonnull align 8 dereferenceable(8) %"class.std::basic_ostream"* @_ZNSo3putEc(%"class.std::basic_ostream"* nonnull align 8 dereferenceable(8), i8 signext) local_unnamed_addr #0

declare nonnull align 8 dereferenceable(8) %"class.std::basic_ostream"* @_ZNSo5flushEv(%"class.std::basic_ostream"* nonnull align 8 dereferenceable(8)) local_unnamed_addr #0

; Function Attrs: noreturn
declare void @_ZSt16__throw_bad_castv() local_unnamed_addr #6

declare void @_ZNKSt5ctypeIcE13_M_widen_initEv(%"class.std::ctype"* nonnull align 8 dereferenceable(570)) local_unnamed_addr #0

; Function Attrs: sspstrong uwtable
define internal void @_GLOBAL__sub_I_862.cpp() #7 section ".text.startup" {
  tail call void @_ZNSt8ios_base4InitC1Ev(%"class.std::ios_base::Init"* nonnull align 1 dereferenceable(1) @_ZStL8__ioinit)
  %1 = tail call i32 @__cxa_atexit(void (i8*)* bitcast (void (%"class.std::ios_base::Init"*)* @_ZNSt8ios_base4InitD1Ev to void (i8*)*), i8* getelementptr inbounds (%"class.std::ios_base::Init", %"class.std::ios_base::Init"* @_ZStL8__ioinit, i64 0, i32 0), i8* nonnull @__dso_handle) #8
  ret void
}


!llvm.module.flags = !{!0, !1, !2, !3}
!llvm.ident = !{!4}

!0 = !{i32 1, !"wchar_size", i32 4}
!1 = !{i32 7, !"PIC Level", i32 2}
!2 = !{i32 7, !"PIE Level", i32 2}
!3 = !{i32 7, !"uwtable", i32 1}
!4 = !{!"clang version 13.0.0"}
!5 = !{!6, !6, i64 0}
!6 = !{!"int", !7, i64 0}
!7 = !{!"omnipotent char", !8, i64 0}
!8 = !{!"Simple C++ TBAA"}
!9 = distinct !{!9, !10}
!10 = !{!"llvm.loop.mustprogress"}
!11 = distinct !{!11, !10}
!12 = distinct !{!12, !10}
!13 = !{!14, !14, i64 0}
!14 = !{!"vtable pointer", !8, i64 0}
!15 = !{!16, !17, i64 240}
!16 = !{!"_ZTSSt9basic_iosIcSt11char_traitsIcEE", !17, i64 216, !7, i64 224, !18, i64 225, !17, i64 232, !17, i64 240, !17, i64 248, !17, i64 256}
!17 = !{!"any pointer", !7, i64 0}
!18 = !{!"bool", !7, i64 0}
!19 = !{!20, !7, i64 56}
!20 = !{!"_ZTSSt5ctypeIcE", !17, i64 16, !18, i64 24, !17, i64 32, !17, i64 40, !17, i64 48, !7, i64 56, !7, i64 57, !7, i64 313, !7, i64 569}
!21 = !{!7, !7, i64 0}
!22 = distinct !{!22, !10}
!23 = distinct !{!23, !10}
